target datalayout = "e-m:e-p270:32:32-p271:32:32-p272:64:64-i64:64-i128:128-f80:128-n8:16:32:64-S128"
target triple = "x86_64-unknown-linux-gnu"

%struct.AddressSpace = type { %struct.rcu_head, ptr, ptr, ptr, i32, i32, ptr, %union.anon, %union.anon.0 }
%struct.rcu_head = type { ptr, ptr }
%union.anon = type { %struct.QTailQLink }
%struct.QTailQLink = type { ptr, ptr }
%union.anon.0 = type { %struct.QTailQLink }
%struct.EHCIPCIState = type { %struct.PCIDevice, %struct.EHCIState }
%struct.PCIDevice = type { %struct.DeviceState, i8, i8, ptr, ptr, ptr, ptr, ptr, i32, %struct.PCIReqIDCache, [64 x i8], [7 x %struct.PCIIORegion], %struct.AddressSpace, %struct.MemoryRegion, %struct.MemoryRegion, ptr, ptr, [3 x ptr], i8, i8, i32, i8, i32, ptr, ptr, ptr, ptr, ptr, ptr, %struct.MemoryRegion, %struct.MemoryRegion, %struct.MemoryRegion, ptr, i8, i32, i8, %struct.PCIExpressDevice, ptr, ptr, i32, i8, %struct.MemoryRegion, i32, ptr, ptr, ptr, ptr, ptr, i32 }
%struct.DeviceState = type { %struct.Object, ptr, ptr, i8, i8, i64, ptr, i32, i8, ptr, %struct.NamedGPIOListHead, %struct.NamedClockListHead, %struct.BusStateHead, i32, i32, i32, %struct.ResettableState, ptr, %struct.MemReentrancyGuard }
%struct.Object = type { ptr, ptr, ptr, i32, ptr }
%struct.NamedGPIOListHead = type { ptr }
%struct.NamedClockListHead = type { ptr }
%struct.BusStateHead = type { ptr }
%struct.ResettableState = type { i32, i8, i8 }
%struct.MemReentrancyGuard = type { i8 }
%struct.PCIReqIDCache = type { ptr, i32 }
%struct.PCIIORegion = type { i64, i64, i8, ptr, ptr }
%struct.PCIExpressDevice = type { i8, i8, i8, i16, %struct.PCIEAERLog, i16, i16, i16, %struct.PCIESriovPF, %struct.PCIESriovVF }
%struct.PCIEAERLog = type { i16, i16, ptr }
%struct.PCIESriovPF = type { i16, [7 x i8], ptr, ptr }
%struct.PCIESriovVF = type { ptr, i16 }
%struct.MemoryRegion = type { %struct.Object, i8, i8, i8, i8, i8, i8, i8, i8, i8, i8, ptr, ptr, ptr, ptr, ptr, ptr, i32, i128, i64, ptr, i64, i8, i8, i8, i8, i8, ptr, i64, i32, %union.anon.1, %union.anon.2, %union.anon.3, ptr, i32, ptr, ptr, i8 }
%union.anon.1 = type { %struct.QTailQLink }
%union.anon.2 = type { %struct.QTailQLink }
%union.anon.3 = type { %struct.QTailQLink }
%struct.EHCIState = type { %struct.USBBus, ptr, ptr, %struct.MemoryRegion, ptr, %struct.MemoryRegion, %struct.MemoryRegion, %struct.MemoryRegion, i32, i8, i16, i16, i16, i16, i32, [16 x i8], %union.anon.7, [6 x i32], ptr, ptr, i8, i32, i32, [6 x %struct.USBPort], [6 x ptr], i32, i32, %union.EHCIQueueHead, %union.EHCIQueueHead, i32, i32, %struct.USBPacket, %struct.QEMUSGList, i64, i32, i32, i8, ptr }
%struct.USBBus = type { %struct.BusState, ptr, i32, i32, i32, %union.anon.4, %union.anon.5, %union.anon.6 }
%struct.BusState = type { %struct.Object, ptr, ptr, ptr, i32, i8, i8, i32, %union.BusChildHead, %struct.BusStateEntry, %struct.ResettableState }
%union.BusChildHead = type { %struct.QTailQLink }
%struct.BusStateEntry = type { ptr, ptr }
%union.anon.4 = type { %struct.QTailQLink }
%union.anon.5 = type { %struct.QTailQLink }
%union.anon.6 = type { %struct.QTailQLink }
%union.anon.7 = type { [17 x i32] }
%struct.USBPort = type { ptr, i32, i32, [16 x i8], ptr, ptr, i32, %union.anon.8 }
%union.anon.8 = type { %struct.QTailQLink }
%union.EHCIQueueHead = type { %struct.QTailQLink }
%struct.USBPacket = type { i32, i64, ptr, i32, %struct.QEMUIOVector, i64, i8, i8, i32, i32, i32, ptr, %union.anon.12, %union.anon.13 }
%struct.QEMUIOVector = type { ptr, i32, %union.anon.9 }
%union.anon.9 = type { %struct.anon.10 }
%struct.anon.10 = type { i32, %struct.iovec }
%struct.iovec = type { ptr, i64 }
%union.anon.12 = type { %struct.QTailQLink }
%union.anon.13 = type { %struct.QTailQLink }
%struct.QEMUSGList = type { ptr, i32, i32, i64, ptr, ptr }

@.str = private unnamed_addr constant [13 x i8] c"pci-ehci-usb\00", align 1
@.str.3 = private unnamed_addr constant [7 x i8] c"device\00", align 1
@.str.4 = private unnamed_addr constant [101 x i8] c"/home/dtcxzyw/WorkSpace/Projects/compilers/llvm-opt-benchmark/bench/qemu/qemu/include/hw/qdev-core.h\00", align 1
@.str.6 = private unnamed_addr constant [96 x i8] c"/home/dtcxzyw/WorkSpace/Projects/compilers/llvm-opt-benchmark/bench/qemu/qemu/hw/usb/hcd-ehci.h\00", align 1
@__func__.PCI_EHCI = private unnamed_addr constant [9 x i8] c"PCI_EHCI\00", align 1
@__func__.DEVICE = private unnamed_addr constant [7 x i8] c"DEVICE\00", align 1

; Function Attrs: nounwind sspstrong uwtable
define internal void @stw_he_p(ptr noundef %ptr, i16 noundef zeroext %v) #0 {
entry:
  %ptr.addr = alloca ptr, align 8
  %v.addr = alloca i16, align 2
  store ptr %ptr, ptr %ptr.addr, align 8
  store i16 %v, ptr %v.addr, align 2
  %0 = load ptr, ptr %ptr.addr, align 8
  call void @llvm.memcpy.p0.p0.i64(ptr align 1 %0, ptr align 2 %v.addr, i64 2, i1 false)
  ret void
}

; Function Attrs: nounwind sspstrong uwtable
define internal void @stw_le_p(ptr noundef %ptr, i16 noundef zeroext %v) #0 {
entry:
  %ptr.addr = alloca ptr, align 8
  %v.addr = alloca i16, align 2
  store ptr %ptr, ptr %ptr.addr, align 8
  store i16 %v, ptr %v.addr, align 2
  %0 = load ptr, ptr %ptr.addr, align 8
  %1 = load i16, ptr %v.addr, align 2
  call void @stw_he_p(ptr noundef %0, i16 noundef zeroext %1)
  ret void
}

; Function Attrs: nounwind sspstrong uwtable
define internal ptr @DEVICE(ptr noundef %obj) #0 {
entry:
  %obj.addr = alloca ptr, align 8
  store ptr %obj, ptr %obj.addr, align 8
  %0 = load ptr, ptr %obj.addr, align 8
  %call = call ptr @object_dynamic_cast_assert(ptr noundef %0, ptr noundef @.str.3, ptr noundef @.str.4, i32 noundef 77, ptr noundef @__func__.DEVICE)
  ret ptr %call
}

; Function Attrs: nounwind sspstrong uwtable
define internal ptr @pci_get_address_space(ptr noundef %dev) #0 {
entry:
  %dev.addr = alloca ptr, align 8
  store ptr %dev, ptr %dev.addr, align 8
  %0 = load ptr, ptr %dev.addr, align 8
  %bus_master_as = getelementptr inbounds %struct.PCIDevice, ptr %0, i32 0, i32 12
  ret ptr %bus_master_as
}

; Function Attrs: nounwind sspstrong uwtable
define internal void @pci_set_word(ptr noundef %config, i16 noundef zeroext %val) #0 {
entry:
  %config.addr = alloca ptr, align 8
  %val.addr = alloca i16, align 2
  store ptr %config, ptr %config.addr, align 8
  store i16 %val, ptr %val.addr, align 2
  %0 = load ptr, ptr %config.addr, align 8
  %1 = load i16, ptr %val.addr, align 2
  call void @stw_le_p(ptr noundef %0, i16 noundef zeroext %1)
  ret void
}

; Function Attrs: nounwind sspstrong uwtable
define internal void @pci_set_byte(ptr noundef %config, i8 noundef zeroext %val) #0 {
entry:
  %config.addr = alloca ptr, align 8
  %val.addr = alloca i8, align 1
  store ptr %config, ptr %config.addr, align 8
  store i8 %val, ptr %val.addr, align 1
  %0 = load i8, ptr %val.addr, align 1
  %1 = load ptr, ptr %config.addr, align 8
  store i8 %0, ptr %1, align 1
  ret void
}

; Function Attrs: nounwind sspstrong uwtable
define internal ptr @PCI_EHCI(ptr noundef %obj) #0 {
entry:
  %obj.addr = alloca ptr, align 8
  store ptr %obj, ptr %obj.addr, align 8
  %0 = load ptr, ptr %obj.addr, align 8
  %call = call ptr @object_dynamic_cast_assert(ptr noundef %0, ptr noundef @.str, ptr noundef @.str.6, i32 noundef 331, ptr noundef @__func__.PCI_EHCI)
  ret ptr %call
}

; Function Attrs: nounwind sspstrong uwtable
define internal void @usb_ehci_pci_realize(ptr noundef %dev, ptr noundef %errp) #0 {
entry:
  %dev.addr = alloca ptr, align 8
  %errp.addr = alloca ptr, align 8
  %i = alloca ptr, align 8
  %s = alloca ptr, align 8
  %pci_conf = alloca ptr, align 8
  store ptr %dev, ptr %dev.addr, align 8
  store ptr %errp, ptr %errp.addr, align 8
  %0 = load ptr, ptr %dev.addr, align 8
  %call = call ptr @PCI_EHCI(ptr noundef %0)
  store ptr %call, ptr %i, align 8
  %1 = load ptr, ptr %i, align 8
  %ehci = getelementptr inbounds %struct.EHCIPCIState, ptr %1, i32 0, i32 1
  store ptr %ehci, ptr %s, align 8
  %2 = load ptr, ptr %dev.addr, align 8
  %config = getelementptr inbounds %struct.PCIDevice, ptr %2, i32 0, i32 3
  %3 = load ptr, ptr %config, align 8
  store ptr %3, ptr %pci_conf, align 8
  %4 = load ptr, ptr %pci_conf, align 8
  %arrayidx = getelementptr i8, ptr %4, i64 9
  call void @pci_set_byte(ptr noundef %arrayidx, i8 noundef zeroext 32)
  %5 = load ptr, ptr %pci_conf, align 8
  %arrayidx1 = getelementptr i8, ptr %5, i64 52
  call void @pci_set_byte(ptr noundef %arrayidx1, i8 noundef zeroext 0)
  %6 = load ptr, ptr %pci_conf, align 8
  %arrayidx2 = getelementptr i8, ptr %6, i64 61
  call void @pci_set_byte(ptr noundef %arrayidx2, i8 noundef zeroext 4)
  %7 = load ptr, ptr %pci_conf, align 8
  %arrayidx3 = getelementptr i8, ptr %7, i64 62
  call void @pci_set_byte(ptr noundef %arrayidx3, i8 noundef zeroext 0)
  %8 = load ptr, ptr %pci_conf, align 8
  %arrayidx4 = getelementptr i8, ptr %8, i64 63
  call void @pci_set_byte(ptr noundef %arrayidx4, i8 noundef zeroext 0)
  %9 = load ptr, ptr %pci_conf, align 8
  %arrayidx5 = getelementptr i8, ptr %9, i64 96
  call void @pci_set_byte(ptr noundef %arrayidx5, i8 noundef zeroext 32)
  %10 = load ptr, ptr %pci_conf, align 8
  %arrayidx6 = getelementptr i8, ptr %10, i64 97
  call void @pci_set_byte(ptr noundef %arrayidx6, i8 noundef zeroext 32)
  %11 = load ptr, ptr %pci_conf, align 8
  %arrayidx7 = getelementptr i8, ptr %11, i64 98
  call void @pci_set_word(ptr noundef %arrayidx7, i16 noundef zeroext 0)
  %12 = load ptr, ptr %pci_conf, align 8
  %arrayidx8 = getelementptr i8, ptr %12, i64 100
  store i8 0, ptr %arrayidx8, align 1
  %13 = load ptr, ptr %pci_conf, align 8
  %arrayidx9 = getelementptr i8, ptr %13, i64 101
  store i8 0, ptr %arrayidx9, align 1
  %14 = load ptr, ptr %pci_conf, align 8
  %arrayidx10 = getelementptr i8, ptr %14, i64 102
  store i8 0, ptr %arrayidx10, align 1
  %15 = load ptr, ptr %pci_conf, align 8
  %arrayidx11 = getelementptr i8, ptr %15, i64 103
  store i8 0, ptr %arrayidx11, align 1
  %16 = load ptr, ptr %pci_conf, align 8
  %arrayidx12 = getelementptr i8, ptr %16, i64 104
  store i8 1, ptr %arrayidx12, align 1
  %17 = load ptr, ptr %pci_conf, align 8
  %arrayidx13 = getelementptr i8, ptr %17, i64 105
  store i8 0, ptr %arrayidx13, align 1
  %18 = load ptr, ptr %pci_conf, align 8
  %arrayidx14 = getelementptr i8, ptr %18, i64 106
  store i8 0, ptr %arrayidx14, align 1
  %19 = load ptr, ptr %pci_conf, align 8
  %arrayidx15 = getelementptr i8, ptr %19, i64 107
  store i8 0, ptr %arrayidx15, align 1
  %20 = load ptr, ptr %pci_conf, align 8
  %arrayidx16 = getelementptr i8, ptr %20, i64 108
  store i8 0, ptr %arrayidx16, align 1
  %21 = load ptr, ptr %pci_conf, align 8
  %arrayidx17 = getelementptr i8, ptr %21, i64 109
  store i8 0, ptr %arrayidx17, align 1
  %22 = load ptr, ptr %pci_conf, align 8
  %arrayidx18 = getelementptr i8, ptr %22, i64 110
  store i8 0, ptr %arrayidx18, align 1
  %23 = load ptr, ptr %pci_conf, align 8
  %arrayidx19 = getelementptr i8, ptr %23, i64 111
  store i8 -64, ptr %arrayidx19, align 1
  %24 = load ptr, ptr %dev.addr, align 8
  %call20 = call ptr @pci_allocate_irq(ptr noundef %24)
  %25 = load ptr, ptr %s, align 8
  %irq = getelementptr inbounds %struct.EHCIState, ptr %25, i32 0, i32 2
  store ptr %call20, ptr %irq, align 8
  %26 = load ptr, ptr %dev.addr, align 8
  %call21 = call ptr @pci_get_address_space(ptr noundef %26)
  %27 = load ptr, ptr %s, align 8
  %as = getelementptr inbounds %struct.EHCIState, ptr %27, i32 0, i32 4
  store ptr %call21, ptr %as, align 16
  %28 = load ptr, ptr %s, align 8
  %29 = load ptr, ptr %dev.addr, align 8
  %call22 = call ptr @DEVICE(ptr noundef %29)
  call void @usb_ehci_realize(ptr noundef %28, ptr noundef %call22, ptr noundef null)
  %30 = load ptr, ptr %dev.addr, align 8
  %31 = load ptr, ptr %s, align 8
  %mem = getelementptr inbounds %struct.EHCIState, ptr %31, i32 0, i32 3
  call void @pci_register_bar(ptr noundef %30, i32 noundef 0, i8 noundef zeroext 0, ptr noundef %mem)
  ret void
}