; Function Attrs: nounwind sspstrong uwtable
define internal void @usb_ehci_pci_realize(ptr noundef %dev, ptr readnone captures(none) %errp) #0 {
entry:
  %call.i = tail call ptr @object_dynamic_cast_assert(ptr noundef %dev, ptr noundef nonnull @.str, ptr noundef nonnull @.str.6, i32 noundef 331, ptr noundef nonnull @__func__.PCI_EHCI) #4
  %ehci = getelementptr inbounds nuw i8, ptr %call.i, i64 2608
  %config = getelementptr inbounds nuw i8, ptr %dev, i64 168
  %0 = load ptr, ptr %config, align 8
  %arrayidx = getelementptr i8, ptr %0, i64 9
  store i8 32, ptr %arrayidx, align 1
  %arrayidx1 = getelementptr i8, ptr %0, i64 52
  store i8 0, ptr %arrayidx1, align 1
  %arrayidx2 = getelementptr i8, ptr %0, i64 61
  store i8 4, ptr %arrayidx2, align 1
  %arrayidx3 = getelementptr i8, ptr %0, i64 62
  store i8 0, ptr %arrayidx3, align 1
  %arrayidx4 = getelementptr i8, ptr %0, i64 63
  store i8 0, ptr %arrayidx4, align 1
  %arrayidx5 = getelementptr i8, ptr %0, i64 96
  store i8 32, ptr %arrayidx5, align 1
  %arrayidx6 = getelementptr i8, ptr %0, i64 97
  store i8 32, ptr %arrayidx6, align 1
  %arrayidx7 = getelementptr i8, ptr %0, i64 98
  %arrayidx12 = getelementptr i8, ptr %0, i64 104
  tail call void @llvm.memset.p0.i64(ptr noundef nonnull align 1 dereferenceable(6) %arrayidx7, i8 0, i64 6, i1 false)
  store i8 1, ptr %arrayidx12, align 1
  %arrayidx13 = getelementptr i8, ptr %0, i64 105
  %arrayidx19 = getelementptr i8, ptr %0, i64 111
  tail call void @llvm.memset.p0.i64(ptr noundef nonnull align 1 dereferenceable(6) %arrayidx13, i8 0, i64 6, i1 false)
  store i8 -64, ptr %arrayidx19, align 1
  %call20 = tail call ptr @pci_allocate_irq(ptr noundef %dev) #4
  %irq = getelementptr inbounds nuw i8, ptr %call.i, i64 2808
  store ptr %call20, ptr %irq, align 8
  %bus_master_as.i = getelementptr inbounds nuw i8, ptr %dev, i64 576
  %as = getelementptr inbounds nuw i8, ptr %call.i, i64 3088
  store ptr %bus_master_as.i, ptr %as, align 16
  %call.i28 = tail call ptr @object_dynamic_cast_assert(ptr noundef %dev, ptr noundef nonnull @.str.3, ptr noundef nonnull @.str.4, i32 noundef 77, ptr noundef nonnull @__func__.DEVICE) #4
  tail call void @usb_ehci_realize(ptr noundef nonnull %ehci, ptr noundef %call.i28, ptr noundef null) #4
  %mem = getelementptr inbounds nuw i8, ptr %call.i, i64 2816
  tail call void @pci_register_bar(ptr noundef %dev, i32 noundef 0, i8 noundef zeroext 0, ptr noundef nonnull %mem) #4
  ret void
}